target datalayout = "e-m:e-p270:32:32-p271:32:32-p272:64:64-i64:64-i128:128-f80:128-n8:16:32:64-S128"
target triple = "x86_64-pc-linux-gnu"

%struct.BlockRefTable = type { ptr, ptr }
%struct.BlockRefTableKey = type { %struct.RelFileLocator, i32 }
%struct.RelFileLocator = type { i32, i32, i32 }
%struct.BlockRefTableEntry = type { %struct.BlockRefTableKey, i32, i8, i32, ptr, ptr, ptr }

; Function Attrs: nounwind uwtable
define dso_local void @BlockRefTableEntrySetLimitBlock(ptr noundef %0, i32 noundef %1) #0 {
  %3 = alloca ptr, align 8
  %4 = alloca i32, align 4
  %5 = alloca i32, align 4
  %6 = alloca i32, align 4
  %7 = alloca i32, align 4
  %8 = alloca ptr, align 8
  %9 = alloca i32, align 4
  %10 = alloca i32, align 4
  %11 = alloca i32, align 4
  %12 = alloca i32, align 4
  store ptr %0, ptr %3, align 8
  store i32 %1, ptr %4, align 4
  call void @llvm.lifetime.start.p0(i64 4, ptr %5) #10
  call void @llvm.lifetime.start.p0(i64 4, ptr %6) #10
  call void @llvm.lifetime.start.p0(i64 4, ptr %7) #10
  call void @llvm.lifetime.start.p0(i64 8, ptr %8) #10
  %13 = load i32, ptr %4, align 4
  %14 = load ptr, ptr %3, align 8
  %15 = getelementptr inbounds nuw %struct.BlockRefTableEntry, ptr %14, i32 0, i32 1
  %16 = load i32, ptr %15, align 8
  %17 = icmp uge i32 %13, %16
  br i1 %17, label %18, label %19

18:                                               ; preds = %2
  store i32 1, ptr %9, align 4
  br label %140

19:                                               ; preds = %2
  %20 = load i32, ptr %4, align 4
  %21 = load ptr, ptr %3, align 8
  %22 = getelementptr inbounds nuw %struct.BlockRefTableEntry, ptr %21, i32 0, i32 1
  store i32 %20, ptr %22, align 8
  %23 = load i32, ptr %4, align 4
  %24 = udiv i32 %23, 65536
  store i32 %24, ptr %6, align 4
  %25 = load i32, ptr %4, align 4
  %26 = urem i32 %25, 65536
  store i32 %26, ptr %7, align 4
  %27 = load i32, ptr %6, align 4
  %28 = load ptr, ptr %3, align 8
  %29 = getelementptr inbounds nuw %struct.BlockRefTableEntry, ptr %28, i32 0, i32 3
  %30 = load i32, ptr %29, align 8
  %31 = icmp uge i32 %27, %30
  br i1 %31, label %32, label %33

32:                                               ; preds = %19
  store i32 1, ptr %9, align 4
  br label %140

33:                                               ; preds = %19
  %34 = load i32, ptr %6, align 4
  %35 = add i32 %34, 1
  store i32 %35, ptr %5, align 4
  br label %36

36:                                               ; preds = %49, %33
  %37 = load i32, ptr %5, align 4
  %38 = load ptr, ptr %3, align 8
  %39 = getelementptr inbounds nuw %struct.BlockRefTableEntry, ptr %38, i32 0, i32 3
  %40 = load i32, ptr %39, align 8
  %41 = icmp ult i32 %37, %40
  br i1 %41, label %42, label %52

42:                                               ; preds = %36
  %43 = load ptr, ptr %3, align 8
  %44 = getelementptr inbounds nuw %struct.BlockRefTableEntry, ptr %43, i32 0, i32 5
  %45 = load ptr, ptr %44, align 8
  %46 = load i32, ptr %5, align 4
  %47 = zext i32 %46 to i64
  %48 = getelementptr inbounds nuw i16, ptr %45, i64 %47
  store i16 0, ptr %48, align 2
  br label %49

49:                                               ; preds = %42
  %50 = load i32, ptr %5, align 4
  %51 = add i32 %50, 1
  store i32 %51, ptr %5, align 4
  br label %36, !llvm.loop !6

52:                                               ; preds = %36
  %53 = load ptr, ptr %3, align 8
  %54 = getelementptr inbounds nuw %struct.BlockRefTableEntry, ptr %53, i32 0, i32 6
  %55 = load ptr, ptr %54, align 8
  %56 = load i32, ptr %6, align 4
  %57 = zext i32 %56 to i64
  %58 = getelementptr inbounds nuw ptr, ptr %55, i64 %57
  %59 = load ptr, ptr %58, align 8
  store ptr %59, ptr %8, align 8
  %60 = load ptr, ptr %3, align 8
  %61 = getelementptr inbounds nuw %struct.BlockRefTableEntry, ptr %60, i32 0, i32 5
  %62 = load ptr, ptr %61, align 8
  %63 = load i32, ptr %6, align 4
  %64 = zext i32 %63 to i64
  %65 = getelementptr inbounds nuw i16, ptr %62, i64 %64
  %66 = load i16, ptr %65, align 2
  %67 = zext i16 %66 to i64
  %68 = icmp eq i64 %67, 4096
  br i1 %68, label %69, label %94

69:                                               ; preds = %52
  call void @llvm.lifetime.start.p0(i64 4, ptr %10) #10
  %70 = load i32, ptr %7, align 4
  store i32 %70, ptr %10, align 4
  br label %71

71:                                               ; preds = %90, %69
  %72 = load i32, ptr %10, align 4
  %73 = icmp ult i32 %72, 65536
  br i1 %73, label %74, label %93

74:                                               ; preds = %71
  %75 = load i32, ptr %10, align 4
  %76 = zext i32 %75 to i64
  %77 = urem i64 %76, 16
  %78 = trunc i64 %77 to i32
  %79 = shl i32 1, %78
  %80 = xor i32 %79, -1
  %81 = load ptr, ptr %8, align 8
  %82 = load i32, ptr %10, align 4
  %83 = zext i32 %82 to i64
  %84 = udiv i64 %83, 16
  %85 = getelementptr inbounds nuw i16, ptr %81, i64 %84
  %86 = load i16, ptr %85, align 2
  %87 = zext i16 %86 to i32
  %88 = and i32 %87, %80
  %89 = trunc i32 %88 to i16
  store i16 %89, ptr %85, align 2
  br label %90

90:                                               ; preds = %74
  %91 = load i32, ptr %10, align 4
  %92 = add i32 %91, 1
  store i32 %92, ptr %10, align 4
  br label %71, !llvm.loop !8

93:                                               ; preds = %71
  call void @llvm.lifetime.end.p0(i64 4, ptr %10) #10
  br label %139

94:                                               ; preds = %52
  call void @llvm.lifetime.start.p0(i64 4, ptr %11) #10
  call void @llvm.lifetime.start.p0(i64 4, ptr %12) #10
  store i32 0, ptr %12, align 4
  store i32 0, ptr %11, align 4
  br label %95

95:                                               ; preds = %127, %94
  %96 = load i32, ptr %11, align 4
  %97 = load ptr, ptr %3, align 8
  %98 = getelementptr inbounds nuw %struct.BlockRefTableEntry, ptr %97, i32 0, i32 5
  %99 = load ptr, ptr %98, align 8
  %100 = load i32, ptr %6, align 4
  %101 = zext i32 %100 to i64
  %102 = getelementptr inbounds nuw i16, ptr %99, i64 %101
  %103 = load i16, ptr %102, align 2
  %104 = zext i16 %103 to i32
  %105 = icmp ult i32 %96, %104
  br i1 %105, label %106, label %130

106:                                              ; preds = %95
  %107 = load ptr, ptr %8, align 8
  %108 = load i32, ptr %11, align 4
  %109 = zext i32 %108 to i64
  %110 = getelementptr inbounds nuw i16, ptr %107, i64 %109
  %111 = load i16, ptr %110, align 2
  %112 = zext i16 %111 to i32
  %113 = load i32, ptr %7, align 4
  %114 = icmp ult i32 %112, %113
  br i1 %114, label %115, label %126

115:                                              ; preds = %106
  %116 = load ptr, ptr %8, align 8
  %117 = load i32, ptr %11, align 4
  %118 = zext i32 %117 to i64
  %119 = getelementptr inbounds nuw i16, ptr %116, i64 %118
  %120 = load i16, ptr %119, align 2
  %121 = load ptr, ptr %8, align 8
  %122 = load i32, ptr %12, align 4
  %123 = add i32 %122, 1
  store i32 %123, ptr %12, align 4
  %124 = zext i32 %122 to i64
  %125 = getelementptr inbounds nuw i16, ptr %121, i64 %124
  store i16 %120, ptr %125, align 2
  br label %126

126:                                              ; preds = %115, %106
  br label %127

127:                                              ; preds = %126
  %128 = load i32, ptr %11, align 4
  %129 = add i32 %128, 1
  store i32 %129, ptr %11, align 4
  br label %95, !llvm.loop !9

130:                                              ; preds = %95
  %131 = load i32, ptr %12, align 4
  %132 = trunc i32 %131 to i16
  %133 = load ptr, ptr %3, align 8
  %134 = getelementptr inbounds nuw %struct.BlockRefTableEntry, ptr %133, i32 0, i32 5
  %135 = load ptr, ptr %134, align 8
  %136 = load i32, ptr %6, align 4
  %137 = zext i32 %136 to i64
  %138 = getelementptr inbounds nuw i16, ptr %135, i64 %137
  store i16 %132, ptr %138, align 2
  call void @llvm.lifetime.end.p0(i64 4, ptr %12) #10
  call void @llvm.lifetime.end.p0(i64 4, ptr %11) #10
  br label %139

139:                                              ; preds = %130, %93
  store i32 0, ptr %9, align 4
  br label %140

140:                                              ; preds = %139, %32, %18
  call void @llvm.lifetime.end.p0(i64 8, ptr %8) #10
  call void @llvm.lifetime.end.p0(i64 4, ptr %7) #10
  call void @llvm.lifetime.end.p0(i64 4, ptr %6) #10
  call void @llvm.lifetime.end.p0(i64 4, ptr %5) #10
  %141 = load i32, ptr %9, align 4
  switch i32 %141, label %143 [
    i32 0, label %142
    i32 1, label %142
  ]

142:                                              ; preds = %140, %140
  ret void

143:                                              ; preds = %140
  unreachable
}

; Function Attrs: nounwind uwtable
define dso_local void @BlockRefTableSetLimitBlock(ptr noundef %0, ptr noundef %1, i32 noundef %2, i32 noundef %3) #0 {
  %5 = alloca ptr, align 8
  %6 = alloca ptr, align 8
  %7 = alloca i32, align 4
  %8 = alloca i32, align 4
  %9 = alloca ptr, align 8
  %10 = alloca %struct.BlockRefTableKey, align 4
  %11 = alloca i8, align 1
  %12 = alloca i32, align 4
  store ptr %0, ptr %5, align 8
  store ptr %1, ptr %6, align 8
  store i32 %2, ptr %7, align 4
  store i32 %3, ptr %8, align 4
  call void @llvm.lifetime.start.p0(i64 8, ptr %9) #10
  call void @llvm.lifetime.start.p0(i64 16, ptr %10) #10
  call void @llvm.memset.p0.i64(ptr align 4 %10, i8 0, i64 16, i1 false)
  call void @llvm.lifetime.start.p0(i64 1, ptr %11) #10
  %13 = getelementptr inbounds nuw %struct.BlockRefTableKey, ptr %10, i32 0, i32 0
  %14 = load ptr, ptr %6, align 8
  call void @llvm.memcpy.p0.p0.i64(ptr align 4 %13, ptr align 4 %14, i64 12, i1 false)
  %15 = load i32, ptr %7, align 4
  %16 = getelementptr inbounds nuw %struct.BlockRefTableKey, ptr %10, i32 0, i32 1
  store i32 %15, ptr %16, align 4
  %17 = load ptr, ptr %5, align 8
  %18 = getelementptr inbounds nuw %struct.BlockRefTable, ptr %17, i32 0, i32 0
  %19 = load ptr, ptr %18, align 8
  %20 = getelementptr inbounds nuw { i64, i64 }, ptr %10, i32 0, i32 0
  %21 = load i64, ptr %20, align 4
  %22 = getelementptr inbounds nuw { i64, i64 }, ptr %10, i32 0, i32 1
  %23 = load i64, ptr %22, align 4
  %24 = call ptr @blockreftable_insert(ptr noundef %19, i64 %21, i64 %23, ptr noundef %11)
  store ptr %24, ptr %9, align 8
  %25 = load i8, ptr %11, align 1, !range !4, !noundef !5
  %26 = trunc i8 %25 to i1
  br i1 %26, label %39, label %27

27:                                               ; preds = %4
  %28 = load i32, ptr %8, align 4
  %29 = load ptr, ptr %9, align 8
  %30 = getelementptr inbounds nuw %struct.BlockRefTableEntry, ptr %29, i32 0, i32 1
  store i32 %28, ptr %30, align 8
  %31 = load ptr, ptr %9, align 8
  %32 = getelementptr inbounds nuw %struct.BlockRefTableEntry, ptr %31, i32 0, i32 3
  store i32 0, ptr %32, align 8
  %33 = load ptr, ptr %9, align 8
  %34 = getelementptr inbounds nuw %struct.BlockRefTableEntry, ptr %33, i32 0, i32 4
  store ptr null, ptr %34, align 8
  %35 = load ptr, ptr %9, align 8
  %36 = getelementptr inbounds nuw %struct.BlockRefTableEntry, ptr %35, i32 0, i32 5
  store ptr null, ptr %36, align 8
  %37 = load ptr, ptr %9, align 8
  %38 = getelementptr inbounds nuw %struct.BlockRefTableEntry, ptr %37, i32 0, i32 6
  store ptr null, ptr %38, align 8
  store i32 1, ptr %12, align 4
  br label %42

39:                                               ; preds = %4
  %40 = load ptr, ptr %9, align 8
  %41 = load i32, ptr %8, align 4
  call void @BlockRefTableEntrySetLimitBlock(ptr noundef %40, i32 noundef %41)
  store i32 0, ptr %12, align 4
  br label %42

42:                                               ; preds = %39, %27
  call void @llvm.lifetime.end.p0(i64 1, ptr %11) #10
  call void @llvm.lifetime.end.p0(i64 16, ptr %10) #10
  call void @llvm.lifetime.end.p0(i64 8, ptr %9) #10
  %43 = load i32, ptr %12, align 4
  switch i32 %43, label %45 [
    i32 0, label %44
    i32 1, label %44
  ]

44:                                               ; preds = %42, %42
  ret void

45:                                               ; preds = %42
  unreachable
}