; Function Attrs: nounwind uwtable
define dso_local void @BlockRefTableSetLimitBlock(ptr noundef readonly captures(none) %0, ptr noundef readonly captures(none) %1, i32 noundef %2, i32 noundef %3) local_unnamed_addr #0 {
  %5 = alloca i8, align 1
  call void @llvm.lifetime.start.p0(i64 1, ptr nonnull %5) #14
  %.sroa.0.0.copyload = load i64, ptr %1, align 4
  %.sroa.5.0..sroa_idx = getelementptr inbounds nuw i8, ptr %1, i64 8
  %.sroa.5.0.copyload = load i32, ptr %.sroa.5.0..sroa_idx, align 4
  %.sroa.5.0.insert.ext = zext i32 %.sroa.5.0.copyload to i64
  %.sroa.5.12.insert.ext = zext i32 %2 to i64
  %.sroa.5.12.insert.shift = shl nuw i64 %.sroa.5.12.insert.ext, 32
  %.sroa.5.12.insert.insert = or disjoint i64 %.sroa.5.12.insert.shift, %.sroa.5.0.insert.ext
  %6 = load ptr, ptr %0, align 8
  %7 = call fastcc ptr @blockreftable_insert(ptr noundef %6, i64 %.sroa.0.0.copyload, i64 %.sroa.5.12.insert.insert, ptr noundef %5)
  %8 = load i8, ptr %5, align 1, !range !4, !noundef !5
  %9 = trunc nuw i8 %8 to i1
  %10 = getelementptr inbounds nuw i8, ptr %7, i64 16
  br i1 %9, label %14, label %11

11:                                               ; preds = %4
  store i32 %3, ptr %10, align 8
  %12 = getelementptr inbounds nuw i8, ptr %7, i64 24
  store i32 0, ptr %12, align 8
  %13 = getelementptr inbounds nuw i8, ptr %7, i64 32
  tail call void @llvm.memset.p0.i64(ptr noundef nonnull align 8 dereferenceable(24) %13, i8 0, i64 24, i1 false)
  br label %BlockRefTableEntrySetLimitBlock.exit

14:                                               ; preds = %4
  %15 = load i32, ptr %10, align 8
  %.not.i = icmp ult i32 %3, %15
  br i1 %.not.i, label %16, label %BlockRefTableEntrySetLimitBlock.exit

16:                                               ; preds = %14
  store i32 %3, ptr %10, align 8
  %17 = lshr i32 %3, 16
  %18 = and i32 %3, 65535
  %19 = getelementptr inbounds nuw i8, ptr %7, i64 24
  %20 = load i32, ptr %19, align 8
  %.not42.i = icmp ult i32 %17, %20
  br i1 %.not42.i, label %.preheader44.i, label %BlockRefTableEntrySetLimitBlock.exit

.preheader44.i:                                   ; preds = %16
  %.03945.i = add nuw nsw i32 %17, 1
  %21 = icmp ult i32 %.03945.i, %20
  br i1 %21, label %.lr.ph.i, label %._crit_edge.i

.lr.ph.i:                                         ; preds = %.preheader44.i
  %22 = getelementptr inbounds nuw i8, ptr %7, i64 40
  %23 = zext nneg i32 %.03945.i to i64
  br label %24

24:                                               ; preds = %24, %.lr.ph.i
  %indvars.iv.i = phi i64 [ %23, %.lr.ph.i ], [ %indvars.iv.next.i, %24 ]
  %25 = load ptr, ptr %22, align 8
  %26 = getelementptr inbounds nuw i16, ptr %25, i64 %indvars.iv.i
  store i16 0, ptr %26, align 2
  %indvars.iv.next.i = add nuw nsw i64 %indvars.iv.i, 1
  %27 = load i32, ptr %19, align 8
  %28 = zext i32 %27 to i64
  %29 = icmp samesign ult i64 %indvars.iv.next.i, %28
  br i1 %29, label %24, label %._crit_edge.i, !llvm.loop !6

._crit_edge.i:                                    ; preds = %24, %.preheader44.i
  %30 = getelementptr inbounds nuw i8, ptr %7, i64 48
  %31 = load ptr, ptr %30, align 8
  %32 = zext nneg i32 %17 to i64
  %33 = getelementptr inbounds nuw ptr, ptr %31, i64 %32
  %34 = load ptr, ptr %33, align 8
  %35 = getelementptr inbounds nuw i8, ptr %7, i64 40
  %36 = load ptr, ptr %35, align 8
  %37 = getelementptr inbounds nuw i16, ptr %36, i64 %32
  %38 = load i16, ptr %37, align 2
  switch i16 %38, label %.lr.ph50.i [
    i16 4096, label %.preheader.i
    i16 0, label %._crit_edge51.i
  ]

.preheader.i:                                     ; preds = %._crit_edge.i, %.preheader.i
  %.03853.i = phi i32 [ %48, %.preheader.i ], [ %18, %._crit_edge.i ]
  %39 = and i32 %.03853.i, 15
  %40 = shl nuw nsw i32 1, %39
  %41 = lshr i32 %.03853.i, 4
  %42 = zext nneg i32 %41 to i64
  %43 = getelementptr inbounds nuw i16, ptr %34, i64 %42
  %44 = load i16, ptr %43, align 2
  %45 = trunc nuw i32 %40 to i16
  %46 = xor i16 %45, -1
  %47 = and i16 %44, %46
  store i16 %47, ptr %43, align 2
  %48 = add nuw nsw i32 %.03853.i, 1
  %exitcond.not.i = icmp eq i32 %48, 65536
  br i1 %exitcond.not.i, label %BlockRefTableEntrySetLimitBlock.exit, label %.preheader.i, !llvm.loop !8

.lr.ph50.i:                                       ; preds = %._crit_edge.i, %58
  %49 = phi ptr [ %59, %58 ], [ %36, %._crit_edge.i ]
  %indvars.iv55.i = phi i64 [ %indvars.iv.next56.i, %58 ], [ 0, %._crit_edge.i ]
  %.049.i = phi i32 [ %.1.i, %58 ], [ 0, %._crit_edge.i ]
  %50 = getelementptr inbounds nuw i16, ptr %34, i64 %indvars.iv55.i
  %51 = load i16, ptr %50, align 2
  %52 = zext i16 %51 to i32
  %53 = icmp samesign ugt i32 %18, %52
  br i1 %53, label %54, label %58

54:                                               ; preds = %.lr.ph50.i
  %55 = add i32 %.049.i, 1
  %56 = zext i32 %.049.i to i64
  %57 = getelementptr inbounds nuw i16, ptr %34, i64 %56
  store i16 %51, ptr %57, align 2
  %.pre.i = load ptr, ptr %35, align 8
  br label %58

58:                                               ; preds = %54, %.lr.ph50.i
  %59 = phi ptr [ %.pre.i, %54 ], [ %49, %.lr.ph50.i ]
  %.1.i = phi i32 [ %55, %54 ], [ %.049.i, %.lr.ph50.i ]
  %indvars.iv.next56.i = add nuw nsw i64 %indvars.iv55.i, 1
  %60 = getelementptr inbounds nuw i16, ptr %59, i64 %32
  %61 = load i16, ptr %60, align 2
  %62 = zext i16 %61 to i64
  %63 = icmp samesign ult i64 %indvars.iv.next56.i, %62
  br i1 %63, label %.lr.ph50.i, label %._crit_edge51.loopexit.i, !llvm.loop !9

._crit_edge51.loopexit.i:                         ; preds = %58
  %64 = trunc i32 %.1.i to i16
  br label %._crit_edge51.i

._crit_edge51.i:                                  ; preds = %._crit_edge51.loopexit.i, %._crit_edge.i
  %.lcssa47.i = phi ptr [ %59, %._crit_edge51.loopexit.i ], [ %36, %._crit_edge.i ]
  %.0.lcssa.i = phi i16 [ %64, %._crit_edge51.loopexit.i ], [ %38, %._crit_edge.i ]
  %65 = getelementptr inbounds nuw i16, ptr %.lcssa47.i, i64 %32
  store i16 %.0.lcssa.i, ptr %65, align 2
  br label %BlockRefTableEntrySetLimitBlock.exit

BlockRefTableEntrySetLimitBlock.exit:             ; preds = %.preheader.i, %._crit_edge51.i, %16, %14, %11
  call void @llvm.lifetime.end.p0(i64 1, ptr nonnull %5) #14
  ret void
}